target datalayout = "e-m:e-p270:32:32-p271:32:32-p272:64:64-i64:64-i128:128-f80:128-n8:16:32:64-S128"
target triple = "x86_64-pc-linux-gnu"

%struct.FFFrameSync = type { ptr, ptr, i32, %struct.AVRational, i64, ptr, ptr, i32, i32, i8, i8, ptr, i32, i32, i32, i32 }
%struct.AVRational = type { i32, i32 }
%struct.FFFrameSyncIn = type { i32, i32, %struct.AVRational, ptr, ptr, i64, i64, i8, i8, i32, i32 }

; Function Attrs: nounwind uwtable
define i32 @ff_framesync_get_frame(ptr noundef %0, i32 noundef %1, ptr noundef %2, i32 noundef %3) #0 {
  %5 = alloca i32, align 4
  %6 = alloca ptr, align 8
  %7 = alloca i32, align 4
  %8 = alloca ptr, align 8
  %9 = alloca i32, align 4
  %10 = alloca ptr, align 8
  %11 = alloca i32, align 4
  %12 = alloca i32, align 4
  %13 = alloca i64, align 8
  %14 = alloca i32, align 4
  store ptr %0, ptr %6, align 8, !tbaa !12
  store i32 %1, ptr %7, align 4, !tbaa !22
  store ptr %2, ptr %8, align 8, !tbaa !62
  store i32 %3, ptr %9, align 4, !tbaa !22
  call void @llvm.lifetime.start.p0(i64 8, ptr %10) #7
  call void @llvm.lifetime.start.p0(i64 4, ptr %11) #7
  store i32 0, ptr %11, align 4, !tbaa !22
  call void @llvm.lifetime.start.p0(i64 4, ptr %12) #7
  call void @llvm.lifetime.start.p0(i64 8, ptr %13) #7
  %15 = load ptr, ptr %6, align 8, !tbaa !12
  %16 = getelementptr inbounds nuw %struct.FFFrameSync, ptr %15, i32 0, i32 11
  %17 = load ptr, ptr %16, align 8, !tbaa !35
  %18 = load i32, ptr %7, align 4, !tbaa !22
  %19 = zext i32 %18 to i64
  %20 = getelementptr inbounds nuw %struct.FFFrameSyncIn, ptr %17, i64 %19
  %21 = getelementptr inbounds nuw %struct.FFFrameSyncIn, ptr %20, i32 0, i32 3
  %22 = load ptr, ptr %21, align 8, !tbaa !64
  %23 = icmp ne ptr %22, null
  br i1 %23, label %26, label %24

24:                                               ; preds = %4
  %25 = load ptr, ptr %8, align 8, !tbaa !62
  store ptr null, ptr %25, align 8, !tbaa !65
  store i32 0, ptr %5, align 4
  store i32 1, ptr %14, align 4
  br label %135

26:                                               ; preds = %4
  %27 = load ptr, ptr %6, align 8, !tbaa !12
  %28 = getelementptr inbounds nuw %struct.FFFrameSync, ptr %27, i32 0, i32 11
  %29 = load ptr, ptr %28, align 8, !tbaa !35
  %30 = load i32, ptr %7, align 4, !tbaa !22
  %31 = zext i32 %30 to i64
  %32 = getelementptr inbounds nuw %struct.FFFrameSyncIn, ptr %29, i64 %31
  %33 = getelementptr inbounds nuw %struct.FFFrameSyncIn, ptr %32, i32 0, i32 3
  %34 = load ptr, ptr %33, align 8, !tbaa !64
  store ptr %34, ptr %10, align 8, !tbaa !65
  %35 = load i32, ptr %9, align 4, !tbaa !22
  %36 = icmp ne i32 %35, 0
  br i1 %36, label %37, label %132

37:                                               ; preds = %26
  %38 = load ptr, ptr %6, align 8, !tbaa !12
  %39 = getelementptr inbounds nuw %struct.FFFrameSync, ptr %38, i32 0, i32 11
  %40 = load ptr, ptr %39, align 8, !tbaa !35
  %41 = load i32, ptr %7, align 4, !tbaa !22
  %42 = zext i32 %41 to i64
  %43 = getelementptr inbounds nuw %struct.FFFrameSyncIn, ptr %40, i64 %42
  %44 = getelementptr inbounds nuw %struct.FFFrameSyncIn, ptr %43, i32 0, i32 7
  %45 = load i8, ptr %44, align 8, !tbaa !66
  %46 = zext i8 %45 to i32
  %47 = icmp ne i32 %46, 0
  br i1 %47, label %48, label %57

48:                                               ; preds = %37
  %49 = load ptr, ptr %6, align 8, !tbaa !12
  %50 = getelementptr inbounds nuw %struct.FFFrameSync, ptr %49, i32 0, i32 11
  %51 = load ptr, ptr %50, align 8, !tbaa !35
  %52 = load i32, ptr %7, align 4, !tbaa !22
  %53 = zext i32 %52 to i64
  %54 = getelementptr inbounds nuw %struct.FFFrameSyncIn, ptr %51, i64 %53
  %55 = getelementptr inbounds nuw %struct.FFFrameSyncIn, ptr %54, i32 0, i32 6
  %56 = load i64, ptr %55, align 8, !tbaa !52
  br label %58

57:                                               ; preds = %37
  br label %58

58:                                               ; preds = %57, %48
  %59 = phi i64 [ %56, %48 ], [ 9223372036854775807, %57 ]
  store i64 %59, ptr %13, align 8, !tbaa !56
  store i32 0, ptr %12, align 4, !tbaa !22
  br label %60

60:                                               ; preds = %109, %58
  %61 = load i32, ptr %12, align 4, !tbaa !22
  %62 = load ptr, ptr %6, align 8, !tbaa !12
  %63 = getelementptr inbounds nuw %struct.FFFrameSync, ptr %62, i32 0, i32 2
  %64 = load i32, ptr %63, align 8, !tbaa !34
  %65 = icmp ult i32 %61, %64
  br i1 %65, label %66, label %70

66:                                               ; preds = %60
  %67 = load i32, ptr %11, align 4, !tbaa !22
  %68 = icmp ne i32 %67, 0
  %69 = xor i1 %68, true
  br label %70

70:                                               ; preds = %66, %60
  %71 = phi i1 [ false, %60 ], [ %69, %66 ]
  br i1 %71, label %72, label %112

72:                                               ; preds = %70
  %73 = load i32, ptr %12, align 4, !tbaa !22
  %74 = load i32, ptr %7, align 4, !tbaa !22
  %75 = icmp ne i32 %73, %74
  br i1 %75, label %76, label %108

76:                                               ; preds = %72
  %77 = load ptr, ptr %6, align 8, !tbaa !12
  %78 = getelementptr inbounds nuw %struct.FFFrameSync, ptr %77, i32 0, i32 11
  %79 = load ptr, ptr %78, align 8, !tbaa !35
  %80 = load i32, ptr %12, align 4, !tbaa !22
  %81 = zext i32 %80 to i64
  %82 = getelementptr inbounds nuw %struct.FFFrameSyncIn, ptr %79, i64 %81
  %83 = getelementptr inbounds nuw %struct.FFFrameSyncIn, ptr %82, i32 0, i32 9
  %84 = load i32, ptr %83, align 4, !tbaa !42
  %85 = icmp ne i32 %84, 0
  br i1 %85, label %86, label %108

86:                                               ; preds = %76
  %87 = load ptr, ptr %6, align 8, !tbaa !12
  %88 = getelementptr inbounds nuw %struct.FFFrameSync, ptr %87, i32 0, i32 11
  %89 = load ptr, ptr %88, align 8, !tbaa !35
  %90 = load i32, ptr %12, align 4, !tbaa !22
  %91 = zext i32 %90 to i64
  %92 = getelementptr inbounds nuw %struct.FFFrameSyncIn, ptr %89, i64 %91
  %93 = getelementptr inbounds nuw %struct.FFFrameSyncIn, ptr %92, i32 0, i32 7
  %94 = load i8, ptr %93, align 8, !tbaa !66
  %95 = icmp ne i8 %94, 0
  br i1 %95, label %96, label %107

96:                                               ; preds = %86
  %97 = load ptr, ptr %6, align 8, !tbaa !12
  %98 = getelementptr inbounds nuw %struct.FFFrameSync, ptr %97, i32 0, i32 11
  %99 = load ptr, ptr %98, align 8, !tbaa !35
  %100 = load i32, ptr %12, align 4, !tbaa !22
  %101 = zext i32 %100 to i64
  %102 = getelementptr inbounds nuw %struct.FFFrameSyncIn, ptr %99, i64 %101
  %103 = getelementptr inbounds nuw %struct.FFFrameSyncIn, ptr %102, i32 0, i32 6
  %104 = load i64, ptr %103, align 8, !tbaa !52
  %105 = load i64, ptr %13, align 8, !tbaa !56
  %106 = icmp slt i64 %104, %105
  br i1 %106, label %107, label %108

107:                                              ; preds = %96, %86
  store i32 1, ptr %11, align 4, !tbaa !22
  br label %108

108:                                              ; preds = %107, %96, %76, %72
  br label %109

109:                                              ; preds = %108
  %110 = load i32, ptr %12, align 4, !tbaa !22
  %111 = add i32 %110, 1
  store i32 %111, ptr %12, align 4, !tbaa !22
  br label %60, !llvm.loop !67

112:                                              ; preds = %70
  %113 = load i32, ptr %11, align 4, !tbaa !22
  %114 = icmp ne i32 %113, 0
  br i1 %114, label %115, label %121

115:                                              ; preds = %112
  %116 = load ptr, ptr %10, align 8, !tbaa !65
  %117 = call ptr @av_frame_clone(ptr noundef %116)
  store ptr %117, ptr %10, align 8, !tbaa !65
  %118 = icmp ne ptr %117, null
  br i1 %118, label %120, label %119

119:                                              ; preds = %115
  store i32 -12, ptr %5, align 4
  store i32 1, ptr %14, align 4
  br label %135

120:                                              ; preds = %115
  br label %129

121:                                              ; preds = %112
  %122 = load ptr, ptr %6, align 8, !tbaa !12
  %123 = getelementptr inbounds nuw %struct.FFFrameSync, ptr %122, i32 0, i32 11
  %124 = load ptr, ptr %123, align 8, !tbaa !35
  %125 = load i32, ptr %7, align 4, !tbaa !22
  %126 = zext i32 %125 to i64
  %127 = getelementptr inbounds nuw %struct.FFFrameSyncIn, ptr %124, i64 %126
  %128 = getelementptr inbounds nuw %struct.FFFrameSyncIn, ptr %127, i32 0, i32 3
  store ptr null, ptr %128, align 8, !tbaa !64
  br label %129

129:                                              ; preds = %121, %120
  %130 = load ptr, ptr %6, align 8, !tbaa !12
  %131 = getelementptr inbounds nuw %struct.FFFrameSync, ptr %130, i32 0, i32 9
  store i8 0, ptr %131, align 8, !tbaa !68
  br label %132

132:                                              ; preds = %129, %26
  %133 = load ptr, ptr %10, align 8, !tbaa !65
  %134 = load ptr, ptr %8, align 8, !tbaa !62
  store ptr %133, ptr %134, align 8, !tbaa !65
  store i32 0, ptr %5, align 4
  store i32 1, ptr %14, align 4
  br label %135

135:                                              ; preds = %132, %119, %24
  call void @llvm.lifetime.end.p0(i64 8, ptr %13) #7
  call void @llvm.lifetime.end.p0(i64 4, ptr %12) #7
  call void @llvm.lifetime.end.p0(i64 4, ptr %11) #7
  call void @llvm.lifetime.end.p0(i64 8, ptr %10) #7
  %136 = load i32, ptr %5, align 4
  ret i32 %136
}