; Function Attrs: nounwind uwtable
define range(i32 -12, 1) i32 @ff_framesync_get_frame(ptr noundef captures(none) %0, i32 noundef %1, ptr noundef writeonly captures(none) %2, i32 noundef %3) local_unnamed_addr #3 {
  %5 = getelementptr inbounds nuw i8, ptr %0, i64 72
  %6 = load ptr, ptr %5, align 8, !tbaa !29
  %7 = zext i32 %1 to i64
  %8 = getelementptr inbounds nuw %struct.FFFrameSyncIn, ptr %6, i64 %7
  %9 = getelementptr inbounds nuw i8, ptr %8, i64 16
  %10 = load ptr, ptr %9, align 8, !tbaa !57
  %.not = icmp eq ptr %10, null
  br i1 %.not, label %.sink.split, label %11

11:                                               ; preds = %4
  %.not36 = icmp eq i32 %3, 0
  br i1 %.not36, label %.sink.split, label %12

12:                                               ; preds = %11
  %13 = getelementptr inbounds nuw i8, ptr %8, i64 48
  %14 = load i8, ptr %13, align 8, !tbaa !58
  %.not37 = icmp eq i8 %14, 0
  br i1 %.not37, label %18, label %15

15:                                               ; preds = %12
  %16 = getelementptr inbounds nuw i8, ptr %8, i64 40
  %17 = load i64, ptr %16, align 8, !tbaa !43
  br label %18

18:                                               ; preds = %12, %15
  %19 = phi i64 [ %17, %15 ], [ 9223372036854775807, %12 ]
  %20 = getelementptr inbounds nuw i8, ptr %0, i64 16
  %21 = load i32, ptr %20, align 8, !tbaa !28
  %.not44 = icmp eq i32 %21, 0
  br i1 %.not44, label %.critedge, label %.lr.ph.preheader

.lr.ph.preheader:                                 ; preds = %18
  %22 = zext i32 %21 to i64
  br label %.lr.ph

.lr.ph:                                           ; preds = %.lr.ph.preheader, %34
  %indvars.iv = phi i64 [ 0, %.lr.ph.preheader ], [ %indvars.iv.next, %34 ]
  %.not40 = icmp eq i64 %indvars.iv, %7
  br i1 %.not40, label %34, label %23

23:                                               ; preds = %.lr.ph
  %24 = getelementptr inbounds nuw %struct.FFFrameSyncIn, ptr %6, i64 %indvars.iv
  %25 = getelementptr inbounds nuw i8, ptr %24, i64 52
  %26 = load i32, ptr %25, align 4, !tbaa !36
  %.not41 = icmp eq i32 %26, 0
  br i1 %.not41, label %34, label %27

27:                                               ; preds = %23
  %28 = getelementptr inbounds nuw i8, ptr %24, i64 48
  %29 = load i8, ptr %28, align 8, !tbaa !58
  %.not42 = icmp eq i8 %29, 0
  br i1 %.not42, label %._crit_edge, label %30

30:                                               ; preds = %27
  %31 = getelementptr inbounds nuw i8, ptr %24, i64 40
  %32 = load i64, ptr %31, align 8, !tbaa !43
  %33 = icmp slt i64 %32, %19
  br i1 %33, label %._crit_edge, label %34

34:                                               ; preds = %.lr.ph, %23, %30
  %indvars.iv.next = add nuw nsw i64 %indvars.iv, 1
  %35 = icmp samesign ult i64 %indvars.iv.next, %22
  br i1 %35, label %.lr.ph, label %.critedge, !llvm.loop !59

._crit_edge:                                      ; preds = %30, %27
  %36 = tail call ptr @av_frame_clone(ptr noundef nonnull %10) #8
  %.not39 = icmp eq ptr %36, null
  br i1 %.not39, label %40, label %38

.critedge:                                        ; preds = %34, %18
  %37 = getelementptr inbounds nuw %struct.FFFrameSyncIn, ptr %6, i64 %7, i32 3
  store ptr null, ptr %37, align 8, !tbaa !57
  br label %38

38:                                               ; preds = %._crit_edge, %.critedge
  %.133 = phi ptr [ %36, %._crit_edge ], [ %10, %.critedge ]
  %39 = getelementptr inbounds nuw i8, ptr %0, i64 64
  store i8 0, ptr %39, align 8, !tbaa !53
  br label %.sink.split

.sink.split:                                      ; preds = %11, %38, %4
  %.032.sink = phi ptr [ null, %4 ], [ %.133, %38 ], [ %10, %11 ]
  store ptr %.032.sink, ptr %2, align 8, !tbaa !60
  br label %40

40:                                               ; preds = %.sink.split, %._crit_edge
  %.0 = phi i32 [ -12, %._crit_edge ], [ 0, %.sink.split ]
  ret i32 %.0
}